c__builtin__
set
p0
((lp1
ccopy_reg
_reconstructor
p2
(cmancala
State
p3
c__builtin__
object
p4
Ntp5
Rp6
(dp7
S'whose_turn'
p8
I01
sS'board'
p9
g2
(cmancala
Board
p10
g4
Ntp11
Rp12
(dp13
S'my_mancala'
p14
g2
(cmancala
Bucket
p15
g4
Ntp16
Rp17
(dp18
S'owner'
p19
I01
sS'is_mancala'
p20
I01
sS'marbles'
p21
I2
sS'neighbor'
p22
g2
(g15
g4
Ntp23
Rp24
(dp25
g19
I00
sg20
I00
sg21
I0
sg22
g2
(g15
g4
Ntp26
Rp27
(dp28
g19
I00
sg20
I00
sg21
I7
sg22
g2
(g15
g4
Ntp29
Rp30
(dp31
g19
I00
sg20
I00
sg21
I5
sg22
g2
(g15
g4
Ntp32
Rp33
(dp34
g19
I00
sg20
I00
sg21
I5
sg22
g2
(g15
g4
Ntp35
Rp36
(dp37
g19
I00
sg20
I00
sg21
I5
sg22
g2
(g15
g4
Ntp38
Rp39
(dp40
g19
I00
sg20
I00
sg21
I4
sg22
g2
(g15
g4
Ntp41
Rp42
(dp43
g19
I00
sg20
I01
sg21
I0
sg22
g2
(g15
g4
Ntp44
Rp45
(dp46
g19
I01
sg20
I00
sg21
I0
sg22
g2
(g15
g4
Ntp47
Rp48
(dp49
g19
I01
sg20
I00
sg21
I0
sg22
g2
(g15
g4
Ntp50
Rp51
(dp52
g19
I01
sg20
I00
sg21
I0
sg22
g2
(g15
g4
Ntp53
Rp54
(dp55
g19
I01
sg20
I00
sg21
I7
sg22
g2
(g15
g4
Ntp56
Rp57
(dp58
g19
I01
sg20
I00
sg21
I7
sg22
g2
(g15
g4
Ntp59
Rp60
(dp61
g19
I01
sg20
I00
sg21
I6
sg22
g17
sS'opposite'
p62
g24
sbsg62
g27
sbsg62
g30
sbsg62
g33
sbsg62
g36
sbsg62
g39
sbsg62
Nsbsg62
g45
sbsg62
g48
sbsg62
g51
sbsg62
g54
sbsg62
g57
sbsg62
g60
sbsg62
NsbsS'your_mancala'
p63
g42
sS'my_buckets'
p64
(lp65
g45
ag48
ag51
ag54
ag57
ag60
asS'your_buckets'
p66
(lp67
g24
ag27
ag30
ag33
ag36
ag39
asbsbag2
(g3
g4
Ntp68
Rp69
(dp70
g8
I00
sg9
g2
(g10
g4
Ntp71
Rp72
(dp73
g14
g2
(g15
g4
Ntp74
Rp75
(dp76
g19
I01
sg20
I01
sg21
I20
sg22
g2
(g15
g4
Ntp77
Rp78
(dp79
g19
I00
sg20
I00
sg21
I0
sg22
g2
(g15
g4
Ntp80
Rp81
(dp82
g19
I00
sg20
I00
sg21
I0
sg22
g2
(g15
g4
Ntp83
Rp84
(dp85
g19
I00
sg20
I00
sg21
I0
sg22
g2
(g15
g4
Ntp86
Rp87
(dp88
g19
I00
sg20
I00
sg21
I10
sg22
g2
(g15
g4
Ntp89
Rp90
(dp91
g19
I00
sg20
I00
sg21
I2
sg22
g2
(g15
g4
Ntp92
Rp93
(dp94
g19
I00
sg20
I00
sg21
I2
sg22
g2
(g15
g4
Ntp95
Rp96
(dp97
g19
I00
sg20
I01
sg21
I3
sg22
g2
(g15
g4
Ntp98
Rp99
(dp100
g19
I01
sg20
I00
sg21
I0
sg22
g2
(g15
g4
Ntp101
Rp102
(dp103
g19
I01
sg20
I00
sg21
I2
sg22
g2
(g15
g4
Ntp104
Rp105
(dp106
g19
I01
sg20
I00
sg21
I3
sg22
g2
(g15
g4
Ntp107
Rp108
(dp109
g19
I01
sg20
I00
sg21
I3
sg22
g2
(g15
g4
Ntp110
Rp111
(dp112
g19
I01
sg20
I00
sg21
I2
sg22
g2
(g15
g4
Ntp113
Rp114
(dp115
g19
I01
sg20
I00
sg21
I1
sg22
g75
sg62
g78
sbsg62
g81
sbsg62
g84
sbsg62
g87
sbsg62
g90
sbsg62
g93
sbsg62
Nsbsg62
g99
sbsg62
g102
sbsg62
g105
sbsg62
g108
sbsg62
g111
sbsg62
g114
sbsg62
Nsbsg63
g96
sg64
(lp116
g99
ag102
ag105
ag108
ag111
ag114
asg66
(lp117
g78
ag81
ag84
ag87
ag90
ag93
asbsbag2
(g3
g4
Ntp118
Rp119
(dp120
g8
I00
sg9
g2
(g10
g4
Ntp121
Rp122
(dp123
g14
g2
(g15
g4
Ntp124
Rp125
(dp126
g19
I01
sg20
I01
sg21
I3
sg22
g2
(g15
g4
Ntp127
Rp128
(dp129
g19
I00
sg20
I00
sg21
I1
sg22
g2
(g15
g4
Ntp130
Rp131
(dp132
g19
I00
sg20
I00
sg21
I8
sg22
g2
(g15
g4
Ntp133
Rp134
(dp135
g19
I00
sg20
I00
sg21
I6
sg22
g2
(g15
g4
Ntp136
Rp137
(dp138
g19
I00
sg20
I00
sg21
I6
sg22
g2
(g15
g4
Ntp139
Rp140
(dp141
g19
I00
sg20
I00
sg21
I5
sg22
g2
(g15
g4
Ntp142
Rp143
(dp144
g19
I00
sg20
I00
sg21
I4
sg22
g2
(g15
g4
Ntp145
Rp146
(dp147
g19
I00
sg20
I01
sg21
I0
sg22
g2
(g15
g4
Ntp148
Rp149
(dp150
g19
I01
sg20
I00
sg21
I0
sg22
g2
(g15
g4
Ntp151
Rp152
(dp153
g19
I01
sg20
I00
sg21
I0
sg22
g2
(g15
g4
Ntp154
Rp155
(dp156
g19
I01
sg20
I00
sg21
I0
sg22
g2
(g15
g4
Ntp157
Rp158
(dp159
g19
I01
sg20
I00
sg21
I0
sg22
g2
(g15
g4
Ntp160
Rp161
(dp162
g19
I01
sg20
I00
sg21
I8
sg22
g2
(g15
g4
Ntp163
Rp164
(dp165
g19
I01
sg20
I00
sg21
I7
sg22
g125
sg62
g128
sbsg62
g131
sbsg62
g134
sbsg62
g137
sbsg62
g140
sbsg62
g143
sbsg62
Nsbsg62
g149
sbsg62
g152
sbsg62
g155
sbsg62
g158
sbsg62
g161
sbsg62
g164
sbsg62
Nsbsg63
g146
sg64
(lp166
g149
ag152
ag155
ag158
ag161
ag164
asg66
(lp167
g128
ag131
ag134
ag137
ag140
ag143
asbsbag2
(g3
g4
Ntp168
Rp169
(dp170
g8
I01
sg9
g2
(g10
g4
Ntp171
Rp172
(dp173
g14
g2
(g15
g4
Ntp174
Rp175
(dp176
g19
I01
sg20
I01
sg21
I3
sg22
g2
(g15
g4
Ntp177
Rp178
(dp179
g19
I00
sg20
I00
sg21
I0
sg22
g2
(g15
g4
Ntp180
Rp181
(dp182
g19
I00
sg20
I00
sg21
I9
sg22
g2
(g15
g4
Ntp183
Rp184
(dp185
g19
I00
sg20
I00
sg21
I6
sg22
g2
(g15
g4
Ntp186
Rp187
(dp188
g19
I00
sg20
I00
sg21
I6
sg22
g2
(g15
g4
Ntp189
Rp190
(dp191
g19
I00
sg20
I00
sg21
I5
sg22
g2
(g15
g4
Ntp192
Rp193
(dp194
g19
I00
sg20
I00
sg21
I4
sg22
g2
(g15
g4
Ntp195
Rp196
(dp197
g19
I00
sg20
I01
sg21
I0
sg22
g2
(g15
g4
Ntp198
Rp199
(dp200
g19
I01
sg20
I00
sg21
I0
sg22
g2
(g15
g4
Ntp201
Rp202
(dp203
g19
I01
sg20
I00
sg21
I0
sg22
g2
(g15
g4
Ntp204
Rp205
(dp206
g19
I01
sg20
I00
sg21
I0
sg22
g2
(g15
g4
Ntp207
Rp208
(dp209
g19
I01
sg20
I00
sg21
I0
sg22
g2
(g15
g4
Ntp210
Rp211
(dp212
g19
I01
sg20
I00
sg21
I8
sg22
g2
(g15
g4
Ntp213
Rp214
(dp215
g19
I01
sg20
I00
sg21
I7
sg22
g175
sg62
g178
sbsg62
g181
sbsg62
g184
sbsg62
g187
sbsg62
g190
sbsg62
g193
sbsg62
Nsbsg62
g199
sbsg62
g202
sbsg62
g205
sbsg62
g208
sbsg62
g211
sbsg62
g214
sbsg62
Nsbsg63
g196
sg64
(lp216
g199
ag202
ag205
ag208
ag211
ag214
asg66
(lp217
g178
ag181
ag184
ag187
ag190
ag193
asbsbag2
(g3
g4
Ntp218
Rp219
(dp220
g8
I00
sg9
g2
(g10
g4
Ntp221
Rp222
(dp223
g14
g2
(g15
g4
Ntp224
Rp225
(dp226
g19
I01
sg20
I01
sg21
I20
sg22
g2
(g15
g4
Ntp227
Rp228
(dp229
g19
I00
sg20
I00
sg21
I0
sg22
g2
(g15
g4
Ntp230
Rp231
(dp232
g19
I00
sg20
I00
sg21
I0
sg22
g2
(g15
g4
Ntp233
Rp234
(dp235
g19
I00
sg20
I00
sg21
I9
sg22
g2
(g15
g4
Ntp236
Rp237
(dp238
g19
I00
sg20
I00
sg21
I9
sg22
g2
(g15
g4
Ntp239
Rp240
(dp241
g19
I00
sg20
I00
sg21
I1
sg22
g2
(g15
g4
Ntp242
Rp243
(dp244
g19
I00
sg20
I00
sg21
I1
sg22
g2
(g15
g4
Ntp245
Rp246
(dp247
g19
I00
sg20
I01
sg21
I2
sg22
g2
(g15
g4
Ntp248
Rp249
(dp250
g19
I01
sg20
I00
sg21
I0
sg22
g2
(g15
g4
Ntp251
Rp252
(dp253
g19
I01
sg20
I00
sg21
I0
sg22
g2
(g15
g4
Ntp254
Rp255
(dp256
g19
I01
sg20
I00
sg21
I2
sg22
g2
(g15
g4
Ntp257
Rp258
(dp259
g19
I01
sg20
I00
sg21
I2
sg22
g2
(g15
g4
Ntp260
Rp261
(dp262
g19
I01
sg20
I00
sg21
I1
sg22
g2
(g15
g4
Ntp263
Rp264
(dp265
g19
I01
sg20
I00
sg21
I1
sg22
g225
sg62
g228
sbsg62
g231
sbsg62
g234
sbsg62
g237
sbsg62
g240
sbsg62
g243
sbsg62
Nsbsg62
g249
sbsg62
g252
sbsg62
g255
sbsg62
g258
sbsg62
g261
sbsg62
g264
sbsg62
Nsbsg63
g246
sg64
(lp266
g249
ag252
ag255
ag258
ag261
ag264
asg66
(lp267
g228
ag231
ag234
ag237
ag240
ag243
asbsbag2
(g3
g4
Ntp268
Rp269
(dp270
g8
I00
sg9
g2
(g10
g4
Ntp271
Rp272
(dp273
g14
g2
(g15
g4
Ntp274
Rp275
(dp276
g19
I01
sg20
I01
sg21
I20
sg22
g2
(g15
g4
Ntp277
Rp278
(dp279
g19
I00
sg20
I00
sg21
I1
sg22
g2
(g15
g4
Ntp280
Rp281
(dp282
g19
I00
sg20
I00
sg21
I0
sg22
g2
(g15
g4
Ntp283
Rp284
(dp285
g19
I00
sg20
I00
sg21
I0
sg22
g2
(g15
g4
Ntp286
Rp287
(dp288
g19
I00
sg20
I00
sg21
I0
sg22
g2
(g15
g4
Ntp289
Rp290
(dp291
g19
I00
sg20
I00
sg21
I3
sg22
g2
(g15
g4
Ntp292
Rp293
(dp294
g19
I00
sg20
I00
sg21
I3
sg22
g2
(g15
g4
Ntp295
Rp296
(dp297
g19
I00
sg20
I01
sg21
I6
sg22
g2
(g15
g4
Ntp298
Rp299
(dp300
g19
I01
sg20
I00
sg21
I0
sg22
g2
(g15
g4
Ntp301
Rp302
(dp303
g19
I01
sg20
I00
sg21
I4
sg22
g2
(g15
g4
Ntp304
Rp305
(dp306
g19
I01
sg20
I00
sg21
I4
sg22
g2
(g15
g4
Ntp307
Rp308
(dp309
g19
I01
sg20
I00
sg21
I4
sg22
g2
(g15
g4
Ntp310
Rp311
(dp312
g19
I01
sg20
I00
sg21
I3
sg22
g2
(g15
g4
Ntp313
Rp314
(dp315
g19
I01
sg20
I00
sg21
I0
sg22
g275
sg62
g278
sbsg62
g281
sbsg62
g284
sbsg62
g287
sbsg62
g290
sbsg62
g293
sbsg62
Nsbsg62
g299
sbsg62
g302
sbsg62
g305
sbsg62
g308
sbsg62
g311
sbsg62
g314
sbsg62
Nsbsg63
g296
sg64
(lp316
g299
ag302
ag305
ag308
ag311
ag314
asg66
(lp317
g278
ag281
ag284
ag287
ag290
ag293
asbsbag2
(g3
g4
Ntp318
Rp319
(dp320
g8
I00
sg9
g2
(g10
g4
Ntp321
Rp322
(dp323
g14
g2
(g15
g4
Ntp324
Rp325
(dp326
g19
I01
sg20
I01
sg21
I0
sg22
g2
(g15
g4
Ntp327
Rp328
(dp329
g19
I00
sg20
I00
sg21
I4
sg22
g2
(g15
g4
Ntp330
Rp331
(dp332
g19
I00
sg20
I00
sg21
I4
sg22
g2
(g15
g4
Ntp333
Rp334
(dp335
g19
I00
sg20
I00
sg21
I4
sg22
g2
(g15
g4
Ntp336
Rp337
(dp338
g19
I00
sg20
I00
sg21
I4
sg22
g2
(g15
g4
Ntp339
Rp340
(dp341
g19
I00
sg20
I00
sg21
I4
sg22
g2
(g15
g4
Ntp342
Rp343
(dp344
g19
I00
sg20
I00
sg21
I4
sg22
g2
(g15
g4
Ntp345
Rp346
(dp347
g19
I00
sg20
I01
sg21
I0
sg22
g2
(g15
g4
Ntp348
Rp349
(dp350
g19
I01
sg20
I00
sg21
I0
sg22
g2
(g15
g4
Ntp351
Rp352
(dp353
g19
I01
sg20
I00
sg21
I5
sg22
g2
(g15
g4
Ntp354
Rp355
(dp356
g19
I01
sg20
I00
sg21
I5
sg22
g2
(g15
g4
Ntp357
Rp358
(dp359
g19
I01
sg20
I00
sg21
I5
sg22
g2
(g15
g4
Ntp360
Rp361
(dp362
g19
I01
sg20
I00
sg21
I5
sg22
g2
(g15
g4
Ntp363
Rp364
(dp365
g19
I01
sg20
I00
sg21
I4
sg22
g325
sg62
g328
sbsg62
g331
sbsg62
g334
sbsg62
g337
sbsg62
g340
sbsg62
g343
sbsg62
Nsbsg62
g349
sbsg62
g352
sbsg62
g355
sbsg62
g358
sbsg62
g361
sbsg62
g364
sbsg62
Nsbsg63
g346
sg64
(lp366
g349
ag352
ag355
ag358
ag361
ag364
asg66
(lp367
g328
ag331
ag334
ag337
ag340
ag343
asbsbag2
(g3
g4
Ntp368
Rp369
(dp370
g8
I00
sg9
g2
(g10
g4
Ntp371
Rp372
(dp373
g14
g2
(g15
g4
Ntp374
Rp375
(dp376
g19
I01
sg20
I01
sg21
I11
sg22
g2
(g15
g4
Ntp377
Rp378
(dp379
g19
I00
sg20
I00
sg21
I1
sg22
g2
(g15
g4
Ntp380
Rp381
(dp382
g19
I00
sg20
I00
sg21
I12
sg22
g2
(g15
g4
Ntp383
Rp384
(dp385
g19
I00
sg20
I00
sg21
I8
sg22
g2
(g15
g4
Ntp386
Rp387
(dp388
g19
I00
sg20
I00
sg21
I8
sg22
g2
(g15
g4
Ntp389
Rp390
(dp391
g19
I00
sg20
I00
sg21
I7
sg22
g2
(g15
g4
Ntp392
Rp393
(dp394
g19
I00
sg20
I00
sg21
I0
sg22
g2
(g15
g4
Ntp395
Rp396
(dp397
g19
I00
sg20
I01
sg21
I0
sg22
g2
(g15
g4
Ntp398
Rp399
(dp400
g19
I01
sg20
I00
sg21
I1
sg22
g2
(g15
g4
Ntp401
Rp402
(dp403
g19
I01
sg20
I00
sg21
I0
sg22
g2
(g15
g4
Ntp404
Rp405
(dp406
g19
I01
sg20
I00
sg21
I0
sg22
g2
(g15
g4
Ntp407
Rp408
(dp409
g19
I01
sg20
I00
sg21
I0
sg22
g2
(g15
g4
Ntp410
Rp411
(dp412
g19
I01
sg20
I00
sg21
I0
sg22
g2
(g15
g4
Ntp413
Rp414
(dp415
g19
I01
sg20
I00
sg21
I0
sg22
g375
sg62
g378
sbsg62
g381
sbsg62
g384
sbsg62
g387
sbsg62
g390
sbsg62
g393
sbsg62
Nsbsg62
g399
sbsg62
g402
sbsg62
g405
sbsg62
g408
sbsg62
g411
sbsg62
g414
sbsg62
Nsbsg63
g396
sg64
(lp416
g399
ag402
ag405
ag408
ag411
ag414
asg66
(lp417
g378
ag381
ag384
ag387
ag390
ag393
asbsbag2
(g3
g4
Ntp418
Rp419
(dp420
g8
I01
sg9
g2
(g10
g4
Ntp421
Rp422
(dp423
g14
g2
(g15
g4
Ntp424
Rp425
(dp426
g19
I01
sg20
I01
sg21
I22
sg22
g2
(g15
g4
Ntp427
Rp428
(dp429
g19
I00
sg20
I00
sg21
I0
sg22
g2
(g15
g4
Ntp430
Rp431
(dp432
g19
I00
sg20
I00
sg21
I0
sg22
g2
(g15
g4
Ntp433
Rp434
(dp435
g19
I00
sg20
I00
sg21
I0
sg22
g2
(g15
g4
Ntp436
Rp437
(dp438
g19
I00
sg20
I00
sg21
I0
sg22
g2
(g15
g4
Ntp439
Rp440
(dp441
g19
I00
sg20
I00
sg21
I4
sg22
g2
(g15
g4
Ntp442
Rp443
(dp444
g19
I00
sg20
I00
sg21
I3
sg22
g2
(g15
g4
Ntp445
Rp446
(dp447
g19
I00
sg20
I01
sg21
I16
sg22
g2
(g15
g4
Ntp448
Rp449
(dp450
g19
I01
sg20
I00
sg21
I0
sg22
g2
(g15
g4
Ntp451
Rp452
(dp453
g19
I01
sg20
I00
sg21
I0
sg22
g2
(g15
g4
Ntp454
Rp455
(dp456
g19
I01
sg20
I00
sg21
I0
sg22
g2
(g15
g4
Ntp457
Rp458
(dp459
g19
I01
sg20
I00
sg21
I0
sg22
g2
(g15
g4
Ntp460
Rp461
(dp462
g19
I01
sg20
I00
sg21
I0
sg22
g2
(g15
g4
Ntp463
Rp464
(dp465
g19
I01
sg20
I00
sg21
I3
sg22
g425
sg62
g428
sbsg62
g431
sbsg62
g434
sbsg62
g437
sbsg62
g440
sbsg62
g443
sbsg62
Nsbsg62
g449
sbsg62
g452
sbsg62
g455
sbsg62
g458
sbsg62
g461
sbsg62
g464
sbsg62
Nsbsg63
g446
sg64
(lp466
g449
ag452
ag455
ag458
ag461
ag464
asg66
(lp467
g428
ag431
ag434
ag437
ag440
ag443
asbsbag2
(g3
g4
Ntp468
Rp469
(dp470
g8
I01
sg9
g2
(g10
g4
Ntp471
Rp472
(dp473
g14
g2
(g15
g4
Ntp474
Rp475
(dp476
g19
I01
sg20
I01
sg21
I20
sg22
g2
(g15
g4
Ntp477
Rp478
(dp479
g19
I00
sg20
I00
sg21
I0
sg22
g2
(g15
g4
Ntp480
Rp481
(dp482
g19
I00
sg20
I00
sg21
I0
sg22
g2
(g15
g4
Ntp483
Rp484
(dp485
g19
I00
sg20
I00
sg21
I1
sg22
g2
(g15
g4
Ntp486
Rp487
(dp488
g19
I00
sg20
I00
sg21
I0
sg22
g2
(g15
g4
Ntp489
Rp490
(dp491
g19
I00
sg20
I00
sg21
I3
sg22
g2
(g15
g4
Ntp492
Rp493
(dp494
g19
I00
sg20
I00
sg21
I3
sg22
g2
(g15
g4
Ntp495
Rp496
(dp497
g19
I00
sg20
I01
sg21
I14
sg22
g2
(g15
g4
Ntp498
Rp499
(dp500
g19
I01
sg20
I00
sg21
I0
sg22
g2
(g15
g4
Ntp501
Rp502
(dp503
g19
I01
sg20
I00
sg21
I0
sg22
g2
(g15
g4
Ntp504
Rp505
(dp506
g19
I01
sg20
I00
sg21
I5
sg22
g2
(g15
g4
Ntp507
Rp508
(dp509
g19
I01
sg20
I00
sg21
I0
sg22
g2
(g15
g4
Ntp510
Rp511
(dp512
g19
I01
sg20
I00
sg21
I1
sg22
g2
(g15
g4
Ntp513
Rp514
(dp515
g19
I01
sg20
I00
sg21
I1
sg22
g475
sg62
g478
sbsg62
g481
sbsg62
g484
sbsg62
g487
sbsg62
g490
sbsg62
g493
sbsg62
Nsbsg62
g499
sbsg62
g502
sbsg62
g505
sbsg62
g508
sbsg62
g511
sbsg62
g514
sbsg62
Nsbsg63
g496
sg64
(lp516
g499
ag502
ag505
ag508
ag511
ag514
asg66
(lp517
g478
ag481
ag484
ag487
ag490
ag493
asbsbag2
(g3
g4
Ntp518
Rp519
(dp520
g8
I01
sg9
g2
(g10
g4
Ntp521
Rp522
(dp523
g14
g2
(g15
g4
Ntp524
Rp525
(dp526
g19
I01
sg20
I01
sg21
I4
sg22
g2
(g15
g4
Ntp527
Rp528
(dp529
g19
I00
sg20
I00
sg21
I0
sg22
g2
(g15
g4
Ntp530
Rp531
(dp532
g19
I00
sg20
I00
sg21
I11
sg22
g2
(g15
g4
Ntp533
Rp534
(dp535
g19
I00
sg20
I00
sg21
I7
sg22
g2
(g15
g4
Ntp536
Rp537
(dp538
g19
I00
sg20
I00
sg21
I7
sg22
g2
(g15
g4
Ntp539
Rp540
(dp541
g19
I00
sg20
I00
sg21
I6
sg22
g2
(g15
g4
Ntp542
Rp543
(dp544
g19
I00
sg20
I00
sg21
I5
sg22
g2
(g15
g4
Ntp545
Rp546
(dp547
g19
I00
sg20
I01
sg21
I0
sg22
g2
(g15
g4
Ntp548
Rp549
(dp550
g19
I01
sg20
I00
sg21
I0
sg22
g2
(g15
g4
Ntp551
Rp552
(dp553
g19
I01
sg20
I00
sg21
I0
sg22
g2
(g15
g4
Ntp554
Rp555
(dp556
g19
I01
sg20
I00
sg21
I0
sg22
g2
(g15
g4
Ntp557
Rp558
(dp559
g19
I01
sg20
I00
sg21
I0
sg22
g2
(g15
g4
Ntp560
Rp561
(dp562
g19
I01
sg20
I00
sg21
I0
sg22
g2
(g15
g4
Ntp563
Rp564
(dp565
g19
I01
sg20
I00
sg21
I8
sg22
g525
sg62
g528
sbsg62
g531
sbsg62
g534
sbsg62
g537
sbsg62
g540
sbsg62
g543
sbsg62
Nsbsg62
g549
sbsg62
g552
sbsg62
g555
sbsg62
g558
sbsg62
g561
sbsg62
g564
sbsg62
Nsbsg63
g546
sg64
(lp566
g549
ag552
ag555
ag558
ag561
ag564
asg66
(lp567
g528
ag531
ag534
ag537
ag540
ag543
asbsbag2
(g3
g4
Ntp568
Rp569
(dp570
g8
I01
sg9
g2
(g10
g4
Ntp571
Rp572
(dp573
g14
g2
(g15
g4
Ntp574
Rp575
(dp576
g19
I01
sg20
I01
sg21
I22
sg22
g2
(g15
g4
Ntp577
Rp578
(dp579
g19
I00
sg20
I00
sg21
I0
sg22
g2
(g15
g4
Ntp580
Rp581
(dp582
g19
I00
sg20
I00
sg21
I0
sg22
g2
(g15
g4
Ntp583
Rp584
(dp585
g19
I00
sg20
I00
sg21
I0
sg22
g2
(g15
g4
Ntp586
Rp587
(dp588
g19
I00
sg20
I00
sg21
I1
sg22
g2
(g15
g4
Ntp589
Rp590
(dp591
g19
I00
sg20
I00
sg21
I3
sg22
g2
(g15
g4
Ntp592
Rp593
(dp594
g19
I00
sg20
I00
sg21
I3
sg22
g2
(g15
g4
Ntp595
Rp596
(dp597
g19
I00
sg20
I01
sg21
I16
sg22
g2
(g15
g4
Ntp598
Rp599
(dp600
g19
I01
sg20
I00
sg21
I0
sg22
g2
(g15
g4
Ntp601
Rp602
(dp603
g19
I01
sg20
I00
sg21
I0
sg22
g2
(g15
g4
Ntp604
Rp605
(dp606
g19
I01
sg20
I00
sg21
I0
sg22
g2
(g15
g4
Ntp607
Rp608
(dp609
g19
I01
sg20
I00
sg21
I0
sg22
g2
(g15
g4
Ntp610
Rp611
(dp612
g19
I01
sg20
I00
sg21
I1
sg22
g2
(g15
g4
Ntp613
Rp614
(dp615
g19
I01
sg20
I00
sg21
I2
sg22
g575
sg62
g578
sbsg62
g581
sbsg62
g584
sbsg62
g587
sbsg62
g590
sbsg62
g593
sbsg62
Nsbsg62
g599
sbsg62
g602
sbsg62
g605
sbsg62
g608
sbsg62
g611
sbsg62
g614
sbsg62
Nsbsg63
g596
sg64
(lp616
g599
ag602
ag605
ag608
ag611
ag614
asg66
(lp617
g578
ag581
ag584
ag587
ag590
ag593
asbsbag2
(g3
g4
Ntp618
Rp619
(dp620
g8
I00
sg9
g2
(g10
g4
Ntp621
Rp622
(dp623
g14
g2
(g15
g4
Ntp624
Rp625
(dp626
g19
I01
sg20
I01
sg21
I18
sg22
g2
(g15
g4
Ntp627
Rp628
(dp629
g19
I00
sg20
I00
sg21
I0
sg22
g2
(g15
g4
Ntp630
Rp631
(dp632
g19
I00
sg20
I00
sg21
I13
sg22
g2
(g15
g4
Ntp633
Rp634
(dp635
g19
I00
sg20
I00
sg21
I8
sg22
g2
(g15
g4
Ntp636
Rp637
(dp638
g19
I00
sg20
I00
sg21
I8
sg22
g2
(g15
g4
Ntp639
Rp640
(dp641
g19
I00
sg20
I00
sg21
I0
sg22
g2
(g15
g4
Ntp642
Rp643
(dp644
g19
I00
sg20
I00
sg21
I0
sg22
g2
(g15
g4
Ntp645
Rp646
(dp647
g19
I00
sg20
I01
sg21
I0
sg22
g2
(g15
g4
Ntp648
Rp649
(dp650
g19
I01
sg20
I00
sg21
I0
sg22
g2
(g15
g4
Ntp651
Rp652
(dp653
g19
I01
sg20
I00
sg21
I1
sg22
g2
(g15
g4
Ntp654
Rp655
(dp656
g19
I01
sg20
I00
sg21
I0
sg22
g2
(g15
g4
Ntp657
Rp658
(dp659
g19
I01
sg20
I00
sg21
I0
sg22
g2
(g15
g4
Ntp660
Rp661
(dp662
g19
I01
sg20
I00
sg21
I0
sg22
g2
(g15
g4
Ntp663
Rp664
(dp665
g19
I01
sg20
I00
sg21
I0
sg22
g625
sg62
g628
sbsg62
g631
sbsg62
g634
sbsg62
g637
sbsg62
g640
sbsg62
g643
sbsg62
Nsbsg62
g649
sbsg62
g652
sbsg62
g655
sbsg62
g658
sbsg62
g661
sbsg62
g664
sbsg62
Nsbsg63
g646
sg64
(lp666
g649
ag652
ag655
ag658
ag661
ag664
asg66
(lp667
g628
ag631
ag634
ag637
ag640
ag643
asbsbag2
(g3
g4
Ntp668
Rp669
(dp670
g8
I01
sg9
g2
(g10
g4
Ntp671
Rp672
(dp673
g14
g2
(g15
g4
Ntp674
Rp675
(dp676
g19
I01
sg20
I01
sg21
I20
sg22
g2
(g15
g4
Ntp677
Rp678
(dp679
g19
I00
sg20
I00
sg21
I0
sg22
g2
(g15
g4
Ntp680
Rp681
(dp682
g19
I00
sg20
I00
sg21
I1
sg22
g2
(g15
g4
Ntp683
Rp684
(dp685
g19
I00
sg20
I00
sg21
I0
sg22
g2
(g15
g4
Ntp686
Rp687
(dp688
g19
I00
sg20
I00
sg21
I0
sg22
g2
(g15
g4
Ntp689
Rp690
(dp691
g19
I00
sg20
I00
sg21
I3
sg22
g2
(g15
g4
Ntp692
Rp693
(dp694
g19
I00
sg20
I00
sg21
I3
sg22
g2
(g15
g4
Ntp695
Rp696
(dp697
g19
I00
sg20
I01
sg21
I9
sg22
g2
(g15
g4
Ntp698
Rp699
(dp700
g19
I01
sg20
I00
sg21
I0
sg22
g2
(g15
g4
Ntp701
Rp702
(dp703
g19
I01
sg20
I00
sg21
I4
sg22
g2
(g15
g4
Ntp704
Rp705
(dp706
g19
I01
sg20
I00
sg21
I4
sg22
g2
(g15
g4
Ntp707
Rp708
(dp709
g19
I01
sg20
I00
sg21
I4
sg22
g2
(g15
g4
Ntp710
Rp711
(dp712
g19
I01
sg20
I00
sg21
I0
sg22
g2
(g15
g4
Ntp713
Rp714
(dp715
g19
I01
sg20
I00
sg21
I0
sg22
g675
sg62
g678
sbsg62
g681
sbsg62
g684
sbsg62
g687
sbsg62
g690
sbsg62
g693
sbsg62
Nsbsg62
g699
sbsg62
g702
sbsg62
g705
sbsg62
g708
sbsg62
g711
sbsg62
g714
sbsg62
Nsbsg63
g696
sg64
(lp716
g699
ag702
ag705
ag708
ag711
ag714
asg66
(lp717
g678
ag681
ag684
ag687
ag690
ag693
asbsbag2
(g3
g4
Ntp718
Rp719
(dp720
g8
I01
sg9
g2
(g10
g4
Ntp721
Rp722
(dp723
g14
g2
(g15
g4
Ntp724
Rp725
(dp726
g19
I01
sg20
I01
sg21
I20
sg22
g2
(g15
g4
Ntp727
Rp728
(dp729
g19
I00
sg20
I00
sg21
I0
sg22
g2
(g15
g4
Ntp730
Rp731
(dp732
g19
I00
sg20
I00
sg21
I0
sg22
g2
(g15
g4
Ntp733
Rp734
(dp735
g19
I00
sg20
I00
sg21
I0
sg22
g2
(g15
g4
Ntp736
Rp737
(dp738
g19
I00
sg20
I00
sg21
I10
sg22
g2
(g15
g4
Ntp739
Rp740
(dp741
g19
I00
sg20
I00
sg21
I2
sg22
g2
(g15
g4
Ntp742
Rp743
(dp744
g19
I00
sg20
I00
sg21
I2
sg22
g2
(g15
g4
Ntp745
Rp746
(dp747
g19
I00
sg20
I01
sg21
I3
sg22
g2
(g15
g4
Ntp748
Rp749
(dp750
g19
I01
sg20
I00
sg21
I1
sg22
g2
(g15
g4
Ntp751
Rp752
(dp753
g19
I01
sg20
I00
sg21
I1
sg22
g2
(g15
g4
Ntp754
Rp755
(dp756
g19
I01
sg20
I00
sg21
I3
sg22
g2
(g15
g4
Ntp757
Rp758
(dp759
g19
I01
sg20
I00
sg21
I3
sg22
g2
(g15
g4
Ntp760
Rp761
(dp762
g19
I01
sg20
I00
sg21
I2
sg22
g2
(g15
g4
Ntp763
Rp764
(dp765
g19
I01
sg20
I00
sg21
I1
sg22
g725
sg62
g728
sbsg62
g731
sbsg62
g734
sbsg62
g737
sbsg62
g740
sbsg62
g743
sbsg62
Nsbsg62
g749
sbsg62
g752
sbsg62
g755
sbsg62
g758
sbsg62
g761
sbsg62
g764
sbsg62
Nsbsg63
g746
sg64
(lp766
g749
ag752
ag755
ag758
ag761
ag764
asg66
(lp767
g728
ag731
ag734
ag737
ag740
ag743
asbsbag2
(g3
g4
Ntp768
Rp769
(dp770
g8
I00
sg9
g2
(g10
g4
Ntp771
Rp772
(dp773
g14
g2
(g15
g4
Ntp774
Rp775
(dp776
g19
I01
sg20
I01
sg21
I18
sg22
g2
(g15
g4
Ntp777
Rp778
(dp779
g19
I00
sg20
I00
sg21
I1
sg22
g2
(g15
g4
Ntp780
Rp781
(dp782
g19
I00
sg20
I00
sg21
I1
sg22
g2
(g15
g4
Ntp783
Rp784
(dp785
g19
I00
sg20
I00
sg21
I9
sg22
g2
(g15
g4
Ntp786
Rp787
(dp788
g19
I00
sg20
I00
sg21
I9
sg22
g2
(g15
g4
Ntp789
Rp790
(dp791
g19
I00
sg20
I00
sg21
I1
sg22
g2
(g15
g4
Ntp792
Rp793
(dp794
g19
I00
sg20
I00
sg21
I1
sg22
g2
(g15
g4
Ntp795
Rp796
(dp797
g19
I00
sg20
I01
sg21
I2
sg22
g2
(g15
g4
Ntp798
Rp799
(dp800
g19
I01
sg20
I00
sg21
I0
sg22
g2
(g15
g4
Ntp801
Rp802
(dp803
g19
I01
sg20
I00
sg21
I3
sg22
g2
(g15
g4
Ntp804
Rp805
(dp806
g19
I01
sg20
I00
sg21
I1
sg22
g2
(g15
g4
Ntp807
Rp808
(dp809
g19
I01
sg20
I00
sg21
I1
sg22
g2
(g15
g4
Ntp810
Rp811
(dp812
g19
I01
sg20
I00
sg21
I0
sg22
g2
(g15
g4
Ntp813
Rp814
(dp815
g19
I01
sg20
I00
sg21
I1
sg22
g775
sg62
g778
sbsg62
g781
sbsg62
g784
sbsg62
g787
sbsg62
g790
sbsg62
g793
sbsg62
Nsbsg62
g799
sbsg62
g802
sbsg62
g805
sbsg62
g808
sbsg62
g811
sbsg62
g814
sbsg62
Nsbsg63
g796
sg64
(lp816
g799
ag802
ag805
ag808
ag811
ag814
asg66
(lp817
g778
ag781
ag784
ag787
ag790
ag793
asbsbag2
(g3
g4
Ntp818
Rp819
(dp820
g8
I01
sg9
g2
(g10
g4
Ntp821
Rp822
(dp823
g14
g2
(g15
g4
Ntp824
Rp825
(dp826
g19
I01
sg20
I01
sg21
I1
sg22
g2
(g15
g4
Ntp827
Rp828
(dp829
g19
I00
sg20
I00
sg21
I0
sg22
g2
(g15
g4
Ntp830
Rp831
(dp832
g19
I00
sg20
I00
sg21
I5
sg22
g2
(g15
g4
Ntp833
Rp834
(dp835
g19
I00
sg20
I00
sg21
I5
sg22
g2
(g15
g4
Ntp836
Rp837
(dp838
g19
I00
sg20
I00
sg21
I5
sg22
g2
(g15
g4
Ntp839
Rp840
(dp841
g19
I00
sg20
I00
sg21
I5
sg22
g2
(g15
g4
Ntp842
Rp843
(dp844
g19
I00
sg20
I00
sg21
I4
sg22
g2
(g15
g4
Ntp845
Rp846
(dp847
g19
I00
sg20
I01
sg21
I0
sg22
g2
(g15
g4
Ntp848
Rp849
(dp850
g19
I01
sg20
I00
sg21
I0
sg22
g2
(g15
g4
Ntp851
Rp852
(dp853
g19
I01
sg20
I00
sg21
I0
sg22
g2
(g15
g4
Ntp854
Rp855
(dp856
g19
I01
sg20
I00
sg21
I6
sg22
g2
(g15
g4
Ntp857
Rp858
(dp859
g19
I01
sg20
I00
sg21
I6
sg22
g2
(g15
g4
Ntp860
Rp861
(dp862
g19
I01
sg20
I00
sg21
I6
sg22
g2
(g15
g4
Ntp863
Rp864
(dp865
g19
I01
sg20
I00
sg21
I5
sg22
g825
sg62
g828
sbsg62
g831
sbsg62
g834
sbsg62
g837
sbsg62
g840
sbsg62
g843
sbsg62
Nsbsg62
g849
sbsg62
g852
sbsg62
g855
sbsg62
g858
sbsg62
g861
sbsg62
g864
sbsg62
Nsbsg63
g846
sg64
(lp866
g849
ag852
ag855
ag858
ag861
ag864
asg66
(lp867
g828
ag831
ag834
ag837
ag840
ag843
asbsbag2
(g3
g4
Ntp868
Rp869
(dp870
g8
I01
sg9
g2
(g10
g4
Ntp871
Rp872
(dp873
g14
g2
(g15
g4
Ntp874
Rp875
(dp876
g19
I01
sg20
I01
sg21
I18
sg22
g2
(g15
g4
Ntp877
Rp878
(dp879
g19
I00
sg20
I00
sg21
I1
sg22
g2
(g15
g4
Ntp880
Rp881
(dp882
g19
I00
sg20
I00
sg21
I1
sg22
g2
(g15
g4
Ntp883
Rp884
(dp885
g19
I00
sg20
I00
sg21
I9
sg22
g2
(g15
g4
Ntp886
Rp887
(dp888
g19
I00
sg20
I00
sg21
I9
sg22
g2
(g15
g4
Ntp889
Rp890
(dp891
g19
I00
sg20
I00
sg21
I1
sg22
g2
(g15
g4
Ntp892
Rp893
(dp894
g19
I00
sg20
I00
sg21
I1
sg22
g2
(g15
g4
Ntp895
Rp896
(dp897
g19
I00
sg20
I01
sg21
I2
sg22
g2
(g15
g4
Ntp898
Rp899
(dp900
g19
I01
sg20
I00
sg21
I1
sg22
g2
(g15
g4
Ntp901
Rp902
(dp903
g19
I01
sg20
I00
sg21
I2
sg22
g2
(g15
g4
Ntp904
Rp905
(dp906
g19
I01
sg20
I00
sg21
I1
sg22
g2
(g15
g4
Ntp907
Rp908
(dp909
g19
I01
sg20
I00
sg21
I1
sg22
g2
(g15
g4
Ntp910
Rp911
(dp912
g19
I01
sg20
I00
sg21
I0
sg22
g2
(g15
g4
Ntp913
Rp914
(dp915
g19
I01
sg20
I00
sg21
I1
sg22
g875
sg62
g878
sbsg62
g881
sbsg62
g884
sbsg62
g887
sbsg62
g890
sbsg62
g893
sbsg62
Nsbsg62
g899
sbsg62
g902
sbsg62
g905
sbsg62
g908
sbsg62
g911
sbsg62
g914
sbsg62
Nsbsg63
g896
sg64
(lp916
g899
ag902
ag905
ag908
ag911
ag914
asg66
(lp917
g878
ag881
ag884
ag887
ag890
ag893
asbsbag2
(g3
g4
Ntp918
Rp919
(dp920
g8
I01
sg9
g2
(g10
g4
Ntp921
Rp922
(dp923
g14
g2
(g15
g4
Ntp924
Rp925
(dp926
g19
I01
sg20
I01
sg21
I0
sg22
g2
(g15
g4
Ntp927
Rp928
(dp929
g19
I00
sg20
I00
sg21
I4
sg22
g2
(g15
g4
Ntp930
Rp931
(dp932
g19
I00
sg20
I00
sg21
I4
sg22
g2
(g15
g4
Ntp933
Rp934
(dp935
g19
I00
sg20
I00
sg21
I4
sg22
g2
(g15
g4
Ntp936
Rp937
(dp938
g19
I00
sg20
I00
sg21
I4
sg22
g2
(g15
g4
Ntp939
Rp940
(dp941
g19
I00
sg20
I00
sg21
I4
sg22
g2
(g15
g4
Ntp942
Rp943
(dp944
g19
I00
sg20
I00
sg21
I4
sg22
g2
(g15
g4
Ntp945
Rp946
(dp947
g19
I00
sg20
I01
sg21
I0
sg22
g2
(g15
g4
Ntp948
Rp949
(dp950
g19
I01
sg20
I00
sg21
I4
sg22
g2
(g15
g4
Ntp951
Rp952
(dp953
g19
I01
sg20
I00
sg21
I4
sg22
g2
(g15
g4
Ntp954
Rp955
(dp956
g19
I01
sg20
I00
sg21
I4
sg22
g2
(g15
g4
Ntp957
Rp958
(dp959
g19
I01
sg20
I00
sg21
I4
sg22
g2
(g15
g4
Ntp960
Rp961
(dp962
g19
I01
sg20
I00
sg21
I4
sg22
g2
(g15
g4
Ntp963
Rp964
(dp965
g19
I01
sg20
I00
sg21
I4
sg22
g925
sg62
g928
sbsg62
g931
sbsg62
g934
sbsg62
g937
sbsg62
g940
sbsg62
g943
sbsg62
Nsbsg62
g949
sbsg62
g952
sbsg62
g955
sbsg62
g958
sbsg62
g961
sbsg62
g964
sbsg62
Nsbsg63
g946
sg64
(lp966
g949
ag952
ag955
ag958
ag961
ag964
asg66
(lp967
g928
ag931
ag934
ag937
ag940
ag943
asbsbag2
(g3
g4
Ntp968
Rp969
(dp970
g8
I00
sg9
g2
(g10
g4
Ntp971
Rp972
(dp973
g14
g2
(g15
g4
Ntp974
Rp975
(dp976
g19
I01
sg20
I01
sg21
I22
sg22
g2
(g15
g4
Ntp977
Rp978
(dp979
g19
I00
sg20
I00
sg21
I0
sg22
g2
(g15
g4
Ntp980
Rp981
(dp982
g19
I00
sg20
I00
sg21
I0
sg22
g2
(g15
g4
Ntp983
Rp984
(dp985
g19
I00
sg20
I00
sg21
I1
sg22
g2
(g15
g4
Ntp986
Rp987
(dp988
g19
I00
sg20
I00
sg21
I0
sg22
g2
(g15
g4
Ntp989
Rp990
(dp991
g19
I00
sg20
I00
sg21
I3
sg22
g2
(g15
g4
Ntp992
Rp993
(dp994
g19
I00
sg20
I00
sg21
I3
sg22
g2
(g15
g4
Ntp995
Rp996
(dp997
g19
I00
sg20
I01
sg21
I16
sg22
g2
(g15
g4
Ntp998
Rp999
(dp1000
g19
I01
sg20
I00
sg21
I0
sg22
g2
(g15
g4
Ntp1001
Rp1002
(dp1003
g19
I01
sg20
I00
sg21
I0
sg22
g2
(g15
g4
Ntp1004
Rp1005
(dp1006
g19
I01
sg20
I00
sg21
I0
sg22
g2
(g15
g4
Ntp1007
Rp1008
(dp1009
g19
I01
sg20
I00
sg21
I0
sg22
g2
(g15
g4
Ntp1010
Rp1011
(dp1012
g19
I01
sg20
I00
sg21
I1
sg22
g2
(g15
g4
Ntp1013
Rp1014
(dp1015
g19
I01
sg20
I00
sg21
I2
sg22
g975
sg62
g978
sbsg62
g981
sbsg62
g984
sbsg62
g987
sbsg62
g990
sbsg62
g993
sbsg62
Nsbsg62
g999
sbsg62
g1002
sbsg62
g1005
sbsg62
g1008
sbsg62
g1011
sbsg62
g1014
sbsg62
Nsbsg63
g996
sg64
(lp1016
g999
ag1002
ag1005
ag1008
ag1011
ag1014
asg66
(lp1017
g978
ag981
ag984
ag987
ag990
ag993
asbsbag2
(g3
g4
Ntp1018
Rp1019
(dp1020
g8
I00
sg9
g2
(g10
g4
Ntp1021
Rp1022
(dp1023
g14
g2
(g15
g4
Ntp1024
Rp1025
(dp1026
g19
I01
sg20
I01
sg21
I23
sg22
g2
(g15
g4
Ntp1027
Rp1028
(dp1029
g19
I00
sg20
I00
sg21
I1
sg22
g2
(g15
g4
Ntp1030
Rp1031
(dp1032
g19
I00
sg20
I00
sg21
I1
sg22
g2
(g15
g4
Ntp1033
Rp1034
(dp1035
g19
I00
sg20
I00
sg21
I0
sg22
g2
(g15
g4
Ntp1036
Rp1037
(dp1038
g19
I00
sg20
I00
sg21
I0
sg22
g2
(g15
g4
Ntp1039
Rp1040
(dp1041
g19
I00
sg20
I00
sg21
I4
sg22
g2
(g15
g4
Ntp1042
Rp1043
(dp1044
g19
I00
sg20
I00
sg21
I3
sg22
g2
(g15
g4
Ntp1045
Rp1046
(dp1047
g19
I00
sg20
I01
sg21
I16
sg22
g2
(g15
g4
Ntp1048
Rp1049
(dp1050
g19
I01
sg20
I00
sg21
I0
sg22
g2
(g15
g4
Ntp1051
Rp1052
(dp1053
g19
I01
sg20
I00
sg21
I0
sg22
g2
(g15
g4
Ntp1054
Rp1055
(dp1056
g19
I01
sg20
I00
sg21
I0
sg22
g2
(g15
g4
Ntp1057
Rp1058
(dp1059
g19
I01
sg20
I00
sg21
I0
sg22
g2
(g15
g4
Ntp1060
Rp1061
(dp1062
g19
I01
sg20
I00
sg21
I0
sg22
g2
(g15
g4
Ntp1063
Rp1064
(dp1065
g19
I01
sg20
I00
sg21
I0
sg22
g1025
sg62
g1028
sbsg62
g1031
sbsg62
g1034
sbsg62
g1037
sbsg62
g1040
sbsg62
g1043
sbsg62
Nsbsg62
g1049
sbsg62
g1052
sbsg62
g1055
sbsg62
g1058
sbsg62
g1061
sbsg62
g1064
sbsg62
Nsbsg63
g1046
sg64
(lp1066
g1049
ag1052
ag1055
ag1058
ag1061
ag1064
asg66
(lp1067
g1028
ag1031
ag1034
ag1037
ag1040
ag1043
asbsbag2
(g3
g4
Ntp1068
Rp1069
(dp1070
g8
I01
sg9
g2
(g10
g4
Ntp1071
Rp1072
(dp1073
g14
g2
(g15
g4
Ntp1074
Rp1075
(dp1076
g19
I01
sg20
I01
sg21
I0
sg22
g2
(g15
g4
Ntp1077
Rp1078
(dp1079
g19
I00
sg20
I00
sg21
I0
sg22
g2
(g15
g4
Ntp1080
Rp1081
(dp1082
g19
I00
sg20
I00
sg21
I5
sg22
g2
(g15
g4
Ntp1083
Rp1084
(dp1085
g19
I00
sg20
I00
sg21
I5
sg22
g2
(g15
g4
Ntp1086
Rp1087
(dp1088
g19
I00
sg20
I00
sg21
I5
sg22
g2
(g15
g4
Ntp1089
Rp1090
(dp1091
g19
I00
sg20
I00
sg21
I5
sg22
g2
(g15
g4
Ntp1092
Rp1093
(dp1094
g19
I00
sg20
I00
sg21
I4
sg22
g2
(g15
g4
Ntp1095
Rp1096
(dp1097
g19
I00
sg20
I01
sg21
I0
sg22
g2
(g15
g4
Ntp1098
Rp1099
(dp1100
g19
I01
sg20
I00
sg21
I0
sg22
g2
(g15
g4
Ntp1101
Rp1102
(dp1103
g19
I01
sg20
I00
sg21
I5
sg22
g2
(g15
g4
Ntp1104
Rp1105
(dp1106
g19
I01
sg20
I00
sg21
I5
sg22
g2
(g15
g4
Ntp1107
Rp1108
(dp1109
g19
I01
sg20
I00
sg21
I5
sg22
g2
(g15
g4
Ntp1110
Rp1111
(dp1112
g19
I01
sg20
I00
sg21
I5
sg22
g2
(g15
g4
Ntp1113
Rp1114
(dp1115
g19
I01
sg20
I00
sg21
I4
sg22
g1075
sg62
g1078
sbsg62
g1081
sbsg62
g1084
sbsg62
g1087
sbsg62
g1090
sbsg62
g1093
sbsg62
Nsbsg62
g1099
sbsg62
g1102
sbsg62
g1105
sbsg62
g1108
sbsg62
g1111
sbsg62
g1114
sbsg62
Nsbsg63
g1096
sg64
(lp1116
g1099
ag1102
ag1105
ag1108
ag1111
ag1114
asg66
(lp1117
g1078
ag1081
ag1084
ag1087
ag1090
ag1093
asbsbag2
(g3
g4
Ntp1118
Rp1119
(dp1120
g8
I00
sg9
g2
(g10
g4
Ntp1121
Rp1122
(dp1123
g14
g2
(g15
g4
Ntp1124
Rp1125
(dp1126
g19
I01
sg20
I01
sg21
I22
sg22
g2
(g15
g4
Ntp1127
Rp1128
(dp1129
g19
I00
sg20
I00
sg21
I0
sg22
g2
(g15
g4
Ntp1130
Rp1131
(dp1132
g19
I00
sg20
I00
sg21
I0
sg22
g2
(g15
g4
Ntp1133
Rp1134
(dp1135
g19
I00
sg20
I00
sg21
I0
sg22
g2
(g15
g4
Ntp1136
Rp1137
(dp1138
g19
I00
sg20
I00
sg21
I1
sg22
g2
(g15
g4
Ntp1139
Rp1140
(dp1141
g19
I00
sg20
I00
sg21
I3
sg22
g2
(g15
g4
Ntp1142
Rp1143
(dp1144
g19
I00
sg20
I00
sg21
I3
sg22
g2
(g15
g4
Ntp1145
Rp1146
(dp1147
g19
I00
sg20
I01
sg21
I16
sg22
g2
(g15
g4
Ntp1148
Rp1149
(dp1150
g19
I01
sg20
I00
sg21
I0
sg22
g2
(g15
g4
Ntp1151
Rp1152
(dp1153
g19
I01
sg20
I00
sg21
I0
sg22
g2
(g15
g4
Ntp1154
Rp1155
(dp1156
g19
I01
sg20
I00
sg21
I0
sg22
g2
(g15
g4
Ntp1157
Rp1158
(dp1159
g19
I01
sg20
I00
sg21
I0
sg22
g2
(g15
g4
Ntp1160
Rp1161
(dp1162
g19
I01
sg20
I00
sg21
I0
sg22
g2
(g15
g4
Ntp1163
Rp1164
(dp1165
g19
I01
sg20
I00
sg21
I3
sg22
g1125
sg62
g1128
sbsg62
g1131
sbsg62
g1134
sbsg62
g1137
sbsg62
g1140
sbsg62
g1143
sbsg62
Nsbsg62
g1149
sbsg62
g1152
sbsg62
g1155
sbsg62
g1158
sbsg62
g1161
sbsg62
g1164
sbsg62
Nsbsg63
g1146
sg64
(lp1166
g1149
ag1152
ag1155
ag1158
ag1161
ag1164
asg66
(lp1167
g1128
ag1131
ag1134
ag1137
ag1140
ag1143
asbsbag2
(g3
g4
Ntp1168
Rp1169
(dp1170
g8
I00
sg9
g2
(g10
g4
Ntp1171
Rp1172
(dp1173
g14
g2
(g15
g4
Ntp1174
Rp1175
(dp1176
g19
I01
sg20
I01
sg21
I4
sg22
g2
(g15
g4
Ntp1177
Rp1178
(dp1179
g19
I00
sg20
I00
sg21
I1
sg22
g2
(g15
g4
Ntp1180
Rp1181
(dp1182
g19
I00
sg20
I00
sg21
I10
sg22
g2
(g15
g4
Ntp1183
Rp1184
(dp1185
g19
I00
sg20
I00
sg21
I7
sg22
g2
(g15
g4
Ntp1186
Rp1187
(dp1188
g19
I00
sg20
I00
sg21
I7
sg22
g2
(g15
g4
Ntp1189
Rp1190
(dp1191
g19
I00
sg20
I00
sg21
I6
sg22
g2
(g15
g4
Ntp1192
Rp1193
(dp1194
g19
I00
sg20
I00
sg21
I5
sg22
g2
(g15
g4
Ntp1195
Rp1196
(dp1197
g19
I00
sg20
I01
sg21
I0
sg22
g2
(g15
g4
Ntp1198
Rp1199
(dp1200
g19
I01
sg20
I00
sg21
I0
sg22
g2
(g15
g4
Ntp1201
Rp1202
(dp1203
g19
I01
sg20
I00
sg21
I0
sg22
g2
(g15
g4
Ntp1204
Rp1205
(dp1206
g19
I01
sg20
I00
sg21
I0
sg22
g2
(g15
g4
Ntp1207
Rp1208
(dp1209
g19
I01
sg20
I00
sg21
I0
sg22
g2
(g15
g4
Ntp1210
Rp1211
(dp1212
g19
I01
sg20
I00
sg21
I0
sg22
g2
(g15
g4
Ntp1213
Rp1214
(dp1215
g19
I01
sg20
I00
sg21
I8
sg22
g1175
sg62
g1178
sbsg62
g1181
sbsg62
g1184
sbsg62
g1187
sbsg62
g1190
sbsg62
g1193
sbsg62
Nsbsg62
g1199
sbsg62
g1202
sbsg62
g1205
sbsg62
g1208
sbsg62
g1211
sbsg62
g1214
sbsg62
Nsbsg63
g1196
sg64
(lp1216
g1199
ag1202
ag1205
ag1208
ag1211
ag1214
asg66
(lp1217
g1178
ag1181
ag1184
ag1187
ag1190
ag1193
asbsbag2
(g3
g4
Ntp1218
Rp1219
(dp1220
g8
I01
sg9
g2
(g10
g4
Ntp1221
Rp1222
(dp1223
g14
g2
(g15
g4
Ntp1224
Rp1225
(dp1226
g19
I01
sg20
I01
sg21
I21
sg22
g2
(g15
g4
Ntp1227
Rp1228
(dp1229
g19
I00
sg20
I00
sg21
I0
sg22
g2
(g15
g4
Ntp1230
Rp1231
(dp1232
g19
I00
sg20
I00
sg21
I1
sg22
g2
(g15
g4
Ntp1233
Rp1234
(dp1235
g19
I00
sg20
I00
sg21
I1
sg22
g2
(g15
g4
Ntp1236
Rp1237
(dp1238
g19
I00
sg20
I00
sg21
I0
sg22
g2
(g15
g4
Ntp1239
Rp1240
(dp1241
g19
I00
sg20
I00
sg21
I3
sg22
g2
(g15
g4
Ntp1242
Rp1243
(dp1244
g19
I00
sg20
I00
sg21
I3
sg22
g2
(g15
g4
Ntp1245
Rp1246
(dp1247
g19
I00
sg20
I01
sg21
I16
sg22
g2
(g15
g4
Ntp1248
Rp1249
(dp1250
g19
I01
sg20
I00
sg21
I0
sg22
g2
(g15
g4
Ntp1251
Rp1252
(dp1253
g19
I01
sg20
I00
sg21
I0
sg22
g2
(g15
g4
Ntp1254
Rp1255
(dp1256
g19
I01
sg20
I00
sg21
I0
sg22
g2
(g15
g4
Ntp1257
Rp1258
(dp1259
g19
I01
sg20
I00
sg21
I1
sg22
g2
(g15
g4
Ntp1260
Rp1261
(dp1262
g19
I01
sg20
I00
sg21
I0
sg22
g2
(g15
g4
Ntp1263
Rp1264
(dp1265
g19
I01
sg20
I00
sg21
I2
sg22
g1225
sg62
g1228
sbsg62
g1231
sbsg62
g1234
sbsg62
g1237
sbsg62
g1240
sbsg62
g1243
sbsg62
Nsbsg62
g1249
sbsg62
g1252
sbsg62
g1255
sbsg62
g1258
sbsg62
g1261
sbsg62
g1264
sbsg62
Nsbsg63
g1246
sg64
(lp1266
g1249
ag1252
ag1255
ag1258
ag1261
ag1264
asg66
(lp1267
g1228
ag1231
ag1234
ag1237
ag1240
ag1243
asbsbag2
(g3
g4
Ntp1268
Rp1269
(dp1270
g8
I00
sg9
g2
(g10
g4
Ntp1271
Rp1272
(dp1273
g14
g2
(g15
g4
Ntp1274
Rp1275
(dp1276
g19
I01
sg20
I01
sg21
I21
sg22
g2
(g15
g4
Ntp1277
Rp1278
(dp1279
g19
I00
sg20
I00
sg21
I1
sg22
g2
(g15
g4
Ntp1280
Rp1281
(dp1282
g19
I00
sg20
I00
sg21
I0
sg22
g2
(g15
g4
Ntp1283
Rp1284
(dp1285
g19
I00
sg20
I00
sg21
I1
sg22
g2
(g15
g4
Ntp1286
Rp1287
(dp1288
g19
I00
sg20
I00
sg21
I0
sg22
g2
(g15
g4
Ntp1289
Rp1290
(dp1291
g19
I00
sg20
I00
sg21
I3
sg22
g2
(g15
g4
Ntp1292
Rp1293
(dp1294
g19
I00
sg20
I00
sg21
I3
sg22
g2
(g15
g4
Ntp1295
Rp1296
(dp1297
g19
I00
sg20
I01
sg21
I14
sg22
g2
(g15
g4
Ntp1298
Rp1299
(dp1300
g19
I01
sg20
I00
sg21
I0
sg22
g2
(g15
g4
Ntp1301
Rp1302
(dp1303
g19
I01
sg20
I00
sg21
I0
sg22
g2
(g15
g4
Ntp1304
Rp1305
(dp1306
g19
I01
sg20
I00
sg21
I0
sg22
g2
(g15
g4
Ntp1307
Rp1308
(dp1309
g19
I01
sg20
I00
sg21
I1
sg22
g2
(g15
g4
Ntp1310
Rp1311
(dp1312
g19
I01
sg20
I00
sg21
I2
sg22
g2
(g15
g4
Ntp1313
Rp1314
(dp1315
g19
I01
sg20
I00
sg21
I2
sg22
g1275
sg62
g1278
sbsg62
g1281
sbsg62
g1284
sbsg62
g1287
sbsg62
g1290
sbsg62
g1293
sbsg62
Nsbsg62
g1299
sbsg62
g1302
sbsg62
g1305
sbsg62
g1308
sbsg62
g1311
sbsg62
g1314
sbsg62
Nsbsg63
g1296
sg64
(lp1316
g1299
ag1302
ag1305
ag1308
ag1311
ag1314
asg66
(lp1317
g1278
ag1281
ag1284
ag1287
ag1290
ag1293
asbsbag2
(g3
g4
Ntp1318
Rp1319
(dp1320
g8
I00
sg9
g2
(g10
g4
Ntp1321
Rp1322
(dp1323
g14
g2
(g15
g4
Ntp1324
Rp1325
(dp1326
g19
I01
sg20
I01
sg21
I2
sg22
g2
(g15
g4
Ntp1327
Rp1328
(dp1329
g19
I00
sg20
I00
sg21
I1
sg22
g2
(g15
g4
Ntp1330
Rp1331
(dp1332
g19
I00
sg20
I00
sg21
I6
sg22
g2
(g15
g4
Ntp1333
Rp1334
(dp1335
g19
I00
sg20
I00
sg21
I5
sg22
g2
(g15
g4
Ntp1336
Rp1337
(dp1338
g19
I00
sg20
I00
sg21
I5
sg22
g2
(g15
g4
Ntp1339
Rp1340
(dp1341
g19
I00
sg20
I00
sg21
I5
sg22
g2
(g15
g4
Ntp1342
Rp1343
(dp1344
g19
I00
sg20
I00
sg21
I4
sg22
g2
(g15
g4
Ntp1345
Rp1346
(dp1347
g19
I00
sg20
I01
sg21
I0
sg22
g2
(g15
g4
Ntp1348
Rp1349
(dp1350
g19
I01
sg20
I00
sg21
I0
sg22
g2
(g15
g4
Ntp1351
Rp1352
(dp1353
g19
I01
sg20
I00
sg21
I0
sg22
g2
(g15
g4
Ntp1354
Rp1355
(dp1356
g19
I01
sg20
I00
sg21
I0
sg22
g2
(g15
g4
Ntp1357
Rp1358
(dp1359
g19
I01
sg20
I00
sg21
I7
sg22
g2
(g15
g4
Ntp1360
Rp1361
(dp1362
g19
I01
sg20
I00
sg21
I7
sg22
g2
(g15
g4
Ntp1363
Rp1364
(dp1365
g19
I01
sg20
I00
sg21
I6
sg22
g1325
sg62
g1328
sbsg62
g1331
sbsg62
g1334
sbsg62
g1337
sbsg62
g1340
sbsg62
g1343
sbsg62
Nsbsg62
g1349
sbsg62
g1352
sbsg62
g1355
sbsg62
g1358
sbsg62
g1361
sbsg62
g1364
sbsg62
Nsbsg63
g1346
sg64
(lp1366
g1349
ag1352
ag1355
ag1358
ag1361
ag1364
asg66
(lp1367
g1328
ag1331
ag1334
ag1337
ag1340
ag1343
asbsbag2
(g3
g4
Ntp1368
Rp1369
(dp1370
g8
I01
sg9
g2
(g10
g4
Ntp1371
Rp1372
(dp1373
g14
g2
(g15
g4
Ntp1374
Rp1375
(dp1376
g19
I01
sg20
I01
sg21
I20
sg22
g2
(g15
g4
Ntp1377
Rp1378
(dp1379
g19
I00
sg20
I00
sg21
I1
sg22
g2
(g15
g4
Ntp1380
Rp1381
(dp1382
g19
I00
sg20
I00
sg21
I0
sg22
g2
(g15
g4
Ntp1383
Rp1384
(dp1385
g19
I00
sg20
I00
sg21
I0
sg22
g2
(g15
g4
Ntp1386
Rp1387
(dp1388
g19
I00
sg20
I00
sg21
I0
sg22
g2
(g15
g4
Ntp1389
Rp1390
(dp1391
g19
I00
sg20
I00
sg21
I3
sg22
g2
(g15
g4
Ntp1392
Rp1393
(dp1394
g19
I00
sg20
I00
sg21
I3
sg22
g2
(g15
g4
Ntp1395
Rp1396
(dp1397
g19
I00
sg20
I01
sg21
I6
sg22
g2
(g15
g4
Ntp1398
Rp1399
(dp1400
g19
I01
sg20
I00
sg21
I1
sg22
g2
(g15
g4
Ntp1401
Rp1402
(dp1403
g19
I01
sg20
I00
sg21
I3
sg22
g2
(g15
g4
Ntp1404
Rp1405
(dp1406
g19
I01
sg20
I00
sg21
I4
sg22
g2
(g15
g4
Ntp1407
Rp1408
(dp1409
g19
I01
sg20
I00
sg21
I4
sg22
g2
(g15
g4
Ntp1410
Rp1411
(dp1412
g19
I01
sg20
I00
sg21
I3
sg22
g2
(g15
g4
Ntp1413
Rp1414
(dp1415
g19
I01
sg20
I00
sg21
I0
sg22
g1375
sg62
g1378
sbsg62
g1381
sbsg62
g1384
sbsg62
g1387
sbsg62
g1390
sbsg62
g1393
sbsg62
Nsbsg62
g1399
sbsg62
g1402
sbsg62
g1405
sbsg62
g1408
sbsg62
g1411
sbsg62
g1414
sbsg62
Nsbsg63
g1396
sg64
(lp1416
g1399
ag1402
ag1405
ag1408
ag1411
ag1414
asg66
(lp1417
g1378
ag1381
ag1384
ag1387
ag1390
ag1393
asbsbag2
(g3
g4
Ntp1418
Rp1419
(dp1420
g8
I00
sg9
g2
(g10
g4
Ntp1421
Rp1422
(dp1423
g14
g2
(g15
g4
Ntp1424
Rp1425
(dp1426
g19
I01
sg20
I01
sg21
I20
sg22
g2
(g15
g4
Ntp1427
Rp1428
(dp1429
g19
I00
sg20
I00
sg21
I0
sg22
g2
(g15
g4
Ntp1430
Rp1431
(dp1432
g19
I00
sg20
I00
sg21
I1
sg22
g2
(g15
g4
Ntp1433
Rp1434
(dp1435
g19
I00
sg20
I00
sg21
I0
sg22
g2
(g15
g4
Ntp1436
Rp1437
(dp1438
g19
I00
sg20
I00
sg21
I0
sg22
g2
(g15
g4
Ntp1439
Rp1440
(dp1441
g19
I00
sg20
I00
sg21
I3
sg22
g2
(g15
g4
Ntp1442
Rp1443
(dp1444
g19
I00
sg20
I00
sg21
I3
sg22
g2
(g15
g4
Ntp1445
Rp1446
(dp1447
g19
I00
sg20
I01
sg21
I9
sg22
g2
(g15
g4
Ntp1448
Rp1449
(dp1450
g19
I01
sg20
I00
sg21
I0
sg22
g2
(g15
g4
Ntp1451
Rp1452
(dp1453
g19
I01
sg20
I00
sg21
I0
sg22
g2
(g15
g4
Ntp1454
Rp1455
(dp1456
g19
I01
sg20
I00
sg21
I5
sg22
g2
(g15
g4
Ntp1457
Rp1458
(dp1459
g19
I01
sg20
I00
sg21
I5
sg22
g2
(g15
g4
Ntp1460
Rp1461
(dp1462
g19
I01
sg20
I00
sg21
I1
sg22
g2
(g15
g4
Ntp1463
Rp1464
(dp1465
g19
I01
sg20
I00
sg21
I1
sg22
g1425
sg62
g1428
sbsg62
g1431
sbsg62
g1434
sbsg62
g1437
sbsg62
g1440
sbsg62
g1443
sbsg62
Nsbsg62
g1449
sbsg62
g1452
sbsg62
g1455
sbsg62
g1458
sbsg62
g1461
sbsg62
g1464
sbsg62
Nsbsg63
g1446
sg64
(lp1466
g1449
ag1452
ag1455
ag1458
ag1461
ag1464
asg66
(lp1467
g1428
ag1431
ag1434
ag1437
ag1440
ag1443
asbsbag2
(g3
g4
Ntp1468
Rp1469
(dp1470
g8
I01
sg9
g2
(g10
g4
Ntp1471
Rp1472
(dp1473
g14
g2
(g15
g4
Ntp1474
Rp1475
(dp1476
g19
I01
sg20
I01
sg21
I11
sg22
g2
(g15
g4
Ntp1477
Rp1478
(dp1479
g19
I00
sg20
I00
sg21
I0
sg22
g2
(g15
g4
Ntp1480
Rp1481
(dp1482
g19
I00
sg20
I00
sg21
I13
sg22
g2
(g15
g4
Ntp1483
Rp1484
(dp1485
g19
I00
sg20
I00
sg21
I8
sg22
g2
(g15
g4
Ntp1486
Rp1487
(dp1488
g19
I00
sg20
I00
sg21
I8
sg22
g2
(g15
g4
Ntp1489
Rp1490
(dp1491
g19
I00
sg20
I00
sg21
I7
sg22
g2
(g15
g4
Ntp1492
Rp1493
(dp1494
g19
I00
sg20
I00
sg21
I0
sg22
g2
(g15
g4
Ntp1495
Rp1496
(dp1497
g19
I00
sg20
I01
sg21
I0
sg22
g2
(g15
g4
Ntp1498
Rp1499
(dp1500
g19
I01
sg20
I00
sg21
I1
sg22
g2
(g15
g4
Ntp1501
Rp1502
(dp1503
g19
I01
sg20
I00
sg21
I0
sg22
g2
(g15
g4
Ntp1504
Rp1505
(dp1506
g19
I01
sg20
I00
sg21
I0
sg22
g2
(g15
g4
Ntp1507
Rp1508
(dp1509
g19
I01
sg20
I00
sg21
I0
sg22
g2
(g15
g4
Ntp1510
Rp1511
(dp1512
g19
I01
sg20
I00
sg21
I0
sg22
g2
(g15
g4
Ntp1513
Rp1514
(dp1515
g19
I01
sg20
I00
sg21
I0
sg22
g1475
sg62
g1478
sbsg62
g1481
sbsg62
g1484
sbsg62
g1487
sbsg62
g1490
sbsg62
g1493
sbsg62
Nsbsg62
g1499
sbsg62
g1502
sbsg62
g1505
sbsg62
g1508
sbsg62
g1511
sbsg62
g1514
sbsg62
Nsbsg63
g1496
sg64
(lp1516
g1499
ag1502
ag1505
ag1508
ag1511
ag1514
asg66
(lp1517
g1478
ag1481
ag1484
ag1487
ag1490
ag1493
asbsbag2
(g3
g4
Ntp1518
Rp1519
(dp1520
g8
I01
sg9
g2
(g10
g4
Ntp1521
Rp1522
(dp1523
g14
g2
(g15
g4
Ntp1524
Rp1525
(dp1526
g19
I01
sg20
I01
sg21
I18
sg22
g2
(g15
g4
Ntp1527
Rp1528
(dp1529
g19
I00
sg20
I00
sg21
I0
sg22
g2
(g15
g4
Ntp1530
Rp1531
(dp1532
g19
I00
sg20
I00
sg21
I2
sg22
g2
(g15
g4
Ntp1533
Rp1534
(dp1535
g19
I00
sg20
I00
sg21
I9
sg22
g2
(g15
g4
Ntp1536
Rp1537
(dp1538
g19
I00
sg20
I00
sg21
I9
sg22
g2
(g15
g4
Ntp1539
Rp1540
(dp1541
g19
I00
sg20
I00
sg21
I1
sg22
g2
(g15
g4
Ntp1542
Rp1543
(dp1544
g19
I00
sg20
I00
sg21
I1
sg22
g2
(g15
g4
Ntp1545
Rp1546
(dp1547
g19
I00
sg20
I01
sg21
I2
sg22
g2
(g15
g4
Ntp1548
Rp1549
(dp1550
g19
I01
sg20
I00
sg21
I0
sg22
g2
(g15
g4
Ntp1551
Rp1552
(dp1553
g19
I01
sg20
I00
sg21
I3
sg22
g2
(g15
g4
Ntp1554
Rp1555
(dp1556
g19
I01
sg20
I00
sg21
I1
sg22
g2
(g15
g4
Ntp1557
Rp1558
(dp1559
g19
I01
sg20
I00
sg21
I1
sg22
g2
(g15
g4
Ntp1560
Rp1561
(dp1562
g19
I01
sg20
I00
sg21
I0
sg22
g2
(g15
g4
Ntp1563
Rp1564
(dp1565
g19
I01
sg20
I00
sg21
I1
sg22
g1525
sg62
g1528
sbsg62
g1531
sbsg62
g1534
sbsg62
g1537
sbsg62
g1540
sbsg62
g1543
sbsg62
Nsbsg62
g1549
sbsg62
g1552
sbsg62
g1555
sbsg62
g1558
sbsg62
g1561
sbsg62
g1564
sbsg62
Nsbsg63
g1546
sg64
(lp1566
g1549
ag1552
ag1555
ag1558
ag1561
ag1564
asg66
(lp1567
g1528
ag1531
ag1534
ag1537
ag1540
ag1543
asbsbatp1568
Rp1569
.